; Function Attrs: nounwind uwtable
define ptr @l_Lean_Meta_getDefaultInstancesPriorities___rarg___lambda__1(ptr noundef %0, ptr noundef %1) #1 {
  %3 = getelementptr inbounds nuw i8, ptr %0, i64 8
  %4 = load ptr, ptr %3, align 8, !tbaa !9
  %5 = ptrtoint ptr %4 to i64
  %6 = and i64 %5, 1
  %.not = icmp eq i64 %6, 0
  br i1 %.not, label %7, label %lean_inc.exit24

7:                                                ; preds = %2
  %.val.i = load i32, ptr %4, align 4, !tbaa !4
  %8 = icmp sgt i32 %.val.i, 0
  br i1 %8, label %9, label %11, !prof !11

9:                                                ; preds = %7
  %10 = add nuw i32 %.val.i, 1
  store i32 %10, ptr %4, align 4, !tbaa !4
  br label %lean_inc.exit24

11:                                               ; preds = %7
  %.not.i31 = icmp eq i32 %.val.i, 0
  br i1 %.not.i31, label %lean_inc.exit24, label %12

12:                                               ; preds = %11
  tail call void @lean_inc_ref_cold(ptr noundef nonnull %4) #6
  br label %lean_inc.exit24

lean_inc.exit24:                                  ; preds = %12, %11, %9, %2
  %13 = ptrtoint ptr %0 to i64
  %14 = and i64 %13, 1
  %.not43 = icmp eq i64 %14, 0
  br i1 %.not43, label %15, label %lean_dec.exit21

15:                                               ; preds = %lean_inc.exit24
  %16 = load i32, ptr %0, align 4, !tbaa !4
  %17 = icmp sgt i32 %16, 1
  br i1 %17, label %18, label %20, !prof !11

18:                                               ; preds = %15
  %19 = add nsw i32 %16, -1
  store i32 %19, ptr %0, align 4, !tbaa !4
  br label %lean_dec.exit21

20:                                               ; preds = %15
  %.not.i = icmp eq i32 %16, 0
  br i1 %.not.i, label %lean_dec.exit21, label %21

21:                                               ; preds = %20
  tail call void @lean_dec_ref_cold(ptr noundef nonnull %0) #6
  br label %lean_dec.exit21

lean_dec.exit21:                                  ; preds = %21, %20, %18, %lean_inc.exit24
  %22 = getelementptr inbounds nuw i8, ptr %4, i64 16
  %23 = load ptr, ptr %22, align 8, !tbaa !9
  %24 = ptrtoint ptr %23 to i64
  %25 = and i64 %24, 1
  %.not44 = icmp eq i64 %25, 0
  br i1 %.not44, label %26, label %lean_inc.exit23

26:                                               ; preds = %lean_dec.exit21
  %.val.i32 = load i32, ptr %23, align 4, !tbaa !4
  %27 = icmp sgt i32 %.val.i32, 0
  br i1 %27, label %28, label %30, !prof !11

28:                                               ; preds = %26
  %29 = add nuw i32 %.val.i32, 1
  store i32 %29, ptr %23, align 4, !tbaa !4
  br label %lean_inc.exit23

30:                                               ; preds = %26
  %.not.i33 = icmp eq i32 %.val.i32, 0
  br i1 %.not.i33, label %lean_inc.exit23, label %31

31:                                               ; preds = %30
  tail call void @lean_inc_ref_cold(ptr noundef nonnull %23) #6
  br label %lean_inc.exit23

lean_inc.exit23:                                  ; preds = %31, %30, %28, %lean_dec.exit21
  br i1 %.not, label %32, label %lean_dec.exit20

32:                                               ; preds = %lean_inc.exit23
  %33 = load i32, ptr %4, align 4, !tbaa !4
  %34 = icmp sgt i32 %33, 1
  br i1 %34, label %35, label %37, !prof !11

35:                                               ; preds = %32
  %36 = add nsw i32 %33, -1
  store i32 %36, ptr %4, align 4, !tbaa !4
  br label %lean_dec.exit20

37:                                               ; preds = %32
  %.not.i25 = icmp eq i32 %33, 0
  br i1 %.not.i25, label %lean_dec.exit20, label %38

38:                                               ; preds = %37
  tail call void @lean_dec_ref_cold(ptr noundef nonnull %4) #6
  br label %lean_dec.exit20

lean_dec.exit20:                                  ; preds = %38, %37, %35, %lean_inc.exit23
  %39 = load ptr, ptr @l_Lean_Meta_defaultInstanceExtension, align 8, !tbaa !9
  %40 = getelementptr inbounds nuw i8, ptr %39, i64 8
  %41 = load ptr, ptr %40, align 8, !tbaa !9
  %42 = ptrtoint ptr %41 to i64
  %43 = and i64 %42, 1
  %.not45 = icmp eq i64 %43, 0
  br i1 %.not45, label %44, label %lean_inc.exit22

44:                                               ; preds = %lean_dec.exit20
  %.val.i35 = load i32, ptr %41, align 4, !tbaa !4
  %45 = icmp sgt i32 %.val.i35, 0
  br i1 %45, label %46, label %48, !prof !11

46:                                               ; preds = %44
  %47 = add nuw i32 %.val.i35, 1
  store i32 %47, ptr %41, align 4, !tbaa !4
  br label %54

48:                                               ; preds = %44
  %.not.i36 = icmp eq i32 %.val.i35, 0
  br i1 %.not.i36, label %.thread41, label %51

.thread41:                                        ; preds = %48
  %49 = getelementptr inbounds nuw i8, ptr %41, i64 32
  %50 = load i8, ptr %49, align 1, !tbaa !19
  br label %lean_dec.exit19

51:                                               ; preds = %48
  tail call void @lean_inc_ref_cold(ptr noundef nonnull %41) #6
  %.pr = load i32, ptr %41, align 4, !tbaa !4
  br label %54

lean_inc.exit22:                                  ; preds = %lean_dec.exit20
  %52 = getelementptr inbounds nuw i8, ptr %41, i64 32
  %53 = load i8, ptr %52, align 1, !tbaa !19
  br label %lean_dec.exit19

54:                                               ; preds = %51, %46
  %55 = phi i32 [ %.pr, %51 ], [ %47, %46 ]
  %56 = getelementptr inbounds nuw i8, ptr %41, i64 32
  %57 = load i8, ptr %56, align 1, !tbaa !19
  %58 = icmp sgt i32 %55, 1
  br i1 %58, label %59, label %61, !prof !15

59:                                               ; preds = %54
  %60 = add nsw i32 %55, -1
  store i32 %60, ptr %41, align 4, !tbaa !4
  br label %lean_dec.exit19

61:                                               ; preds = %54
  %.not.i27 = icmp eq i32 %55, 0
  br i1 %.not.i27, label %lean_dec.exit19, label %62

62:                                               ; preds = %61
  tail call void @lean_dec_ref_cold(ptr noundef nonnull %41) #6
  br label %lean_dec.exit19

lean_dec.exit19:                                  ; preds = %62, %61, %59, %.thread41, %lean_inc.exit22
  %63 = phi i8 [ %53, %lean_inc.exit22 ], [ %57, %59 ], [ %57, %61 ], [ %57, %62 ], [ %50, %.thread41 ]
  %64 = load ptr, ptr @l_Lean_Meta_instInhabitedDefaultInstances, align 8, !tbaa !9
  %65 = load ptr, ptr @l_Lean_Meta_addDefaultInstance___lambda__1___closed__1, align 8, !tbaa !9
  %66 = tail call ptr @l_Lean_SimplePersistentEnvExtension_getState___rarg(ptr noundef %64, ptr noundef %65, ptr noundef %1, i8 noundef zeroext %63) #6
  %67 = getelementptr inbounds nuw i8, ptr %66, i64 16
  %68 = load ptr, ptr %67, align 8, !tbaa !9
  %69 = ptrtoint ptr %68 to i64
  %70 = and i64 %69, 1
  %.not46 = icmp eq i64 %70, 0
  br i1 %.not46, label %71, label %lean_inc.exit

71:                                               ; preds = %lean_dec.exit19
  %.val.i38 = load i32, ptr %68, align 4, !tbaa !4
  %72 = icmp sgt i32 %.val.i38, 0
  br i1 %72, label %73, label %75, !prof !11

73:                                               ; preds = %71
  %74 = add nuw i32 %.val.i38, 1
  store i32 %74, ptr %68, align 4, !tbaa !4
  br label %lean_inc.exit

75:                                               ; preds = %71
  %.not.i39 = icmp eq i32 %.val.i38, 0
  br i1 %.not.i39, label %lean_inc.exit, label %76

76:                                               ; preds = %75
  tail call void @lean_inc_ref_cold(ptr noundef nonnull %68) #6
  br label %lean_inc.exit

lean_inc.exit:                                    ; preds = %76, %75, %73, %lean_dec.exit19
  %77 = ptrtoint ptr %66 to i64
  %78 = and i64 %77, 1
  %.not47 = icmp eq i64 %78, 0
  br i1 %.not47, label %79, label %lean_dec.exit

79:                                               ; preds = %lean_inc.exit
  %80 = load i32, ptr %66, align 4, !tbaa !4
  %81 = icmp sgt i32 %80, 1
  br i1 %81, label %82, label %84, !prof !11

82:                                               ; preds = %79
  %83 = add nsw i32 %80, -1
  store i32 %83, ptr %66, align 4, !tbaa !4
  br label %lean_dec.exit

84:                                               ; preds = %79
  %.not.i29 = icmp eq i32 %80, 0
  br i1 %.not.i29, label %lean_dec.exit, label %85

85:                                               ; preds = %84
  tail call void @lean_dec_ref_cold(ptr noundef nonnull %66) #6
  br label %lean_dec.exit

lean_dec.exit:                                    ; preds = %85, %84, %82, %lean_inc.exit
  %86 = tail call ptr @lean_apply_2(ptr noundef %23, ptr noundef nonnull inttoptr (i64 1 to ptr), ptr noundef %68) #6
  ret ptr %86
}